target datalayout = "e-m:e-p270:32:32-p271:32:32-p272:64:64-i64:64-i128:128-f80:128-n8:16:32:64-S128"
target triple = "x86_64-pc-linux-gnu"

%struct.AVFormatContext = type { ptr, ptr, ptr, ptr, ptr, i32, i32, ptr, i32, ptr, i32, ptr, ptr, i64, i64, i64, i32, i32, i32, i64, i64, ptr, i32, i32, ptr, i32, i32, i32, i32, ptr, i64, i32, i32, %struct.AVIOInterruptCB, i32, i32, i32, i32, i64, i32, i32, i32, i32, i32, i32, i32, i32, i32, i32, i32, i32, i64, i32, i32, i32, i32, i32, ptr, ptr, ptr, ptr, i32, ptr, ptr, ptr, ptr, i32, ptr, ptr, i64, ptr, ptr, ptr, i64 }
%struct.AVIOInterruptCB = type { ptr, ptr }

; Function Attrs: nounwind uwtable
define internal i32 @iamf_read_packet(ptr noundef %0, ptr noundef %1) #0 {
  %3 = alloca i32, align 4
  %4 = alloca ptr, align 8
  %5 = alloca ptr, align 8
  %6 = alloca ptr, align 8
  %7 = alloca i32, align 4
  %8 = alloca i32, align 4
  store ptr %0, ptr %4, align 8, !tbaa !15
  store ptr %1, ptr %5, align 8, !tbaa !131
  call void @llvm.lifetime.start.p0(i64 8, ptr %6) #5
  %9 = load ptr, ptr %4, align 8, !tbaa !15
  %10 = getelementptr inbounds nuw %struct.AVFormatContext, ptr %9, i32 0, i32 3
  %11 = load ptr, ptr %10, align 8, !tbaa !17
  store ptr %11, ptr %6, align 8, !tbaa !32
  call void @llvm.lifetime.start.p0(i64 4, ptr %7) #5
  %12 = load ptr, ptr %4, align 8, !tbaa !15
  %13 = load ptr, ptr %6, align 8, !tbaa !32
  %14 = load ptr, ptr %4, align 8, !tbaa !15
  %15 = getelementptr inbounds nuw %struct.AVFormatContext, ptr %14, i32 0, i32 4
  %16 = load ptr, ptr %15, align 8, !tbaa !36
  %17 = load ptr, ptr %5, align 8, !tbaa !131
  %18 = call i32 @ff_iamf_read_packet(ptr noundef %12, ptr noundef %13, ptr noundef %16, i32 noundef 2147483647, i32 noundef 0, ptr noundef %17)
  store i32 %18, ptr %7, align 4, !tbaa !9
  %19 = load i32, ptr %7, align 4, !tbaa !9
  %20 = icmp slt i32 %19, 0
  br i1 %20, label %21, label %23

21:                                               ; preds = %2
  %22 = load i32, ptr %7, align 4, !tbaa !9
  store i32 %22, ptr %3, align 4
  store i32 1, ptr %8, align 4
  br label %24

23:                                               ; preds = %2
  store i32 0, ptr %3, align 4
  store i32 1, ptr %8, align 4
  br label %24

24:                                               ; preds = %23, %21
  call void @llvm.lifetime.end.p0(i64 4, ptr %7) #5
  call void @llvm.lifetime.end.p0(i64 8, ptr %6) #5
  %25 = load i32, ptr %3, align 4
  ret i32 %25
}