; Function Attrs: nounwind uwtable
define internal range(i32 -2147483648, 1) i32 @iamf_read_packet(ptr noundef %0, ptr noundef %1) #0 {
  %3 = getelementptr inbounds nuw i8, ptr %0, i64 24
  %4 = load ptr, ptr %3, align 8, !tbaa !14
  %5 = getelementptr inbounds nuw i8, ptr %0, i64 32
  %6 = load ptr, ptr %5, align 8, !tbaa !29
  %7 = tail call i32 @ff_iamf_read_packet(ptr noundef %0, ptr noundef %4, ptr noundef %6, i32 noundef 2147483647, i32 noundef 0, ptr noundef %1) #5
  %. = tail call i32 @llvm.smin.i32(i32 %7, i32 0)
  ret i32 %.
}